target datalayout = "e-m:e-p270:32:32-p271:32:32-p272:64:64-i64:64-i128:128-f80:128-n8:16:32:64-S128"
target triple = "x86_64-unknown-linux-gnu"

%struct.btCollisionObjectWrapper = type { ptr, ptr, ptr, ptr, ptr, i32, i32 }

; Function Attrs: mustprogress nounwind uwtable
define linkonce_odr dso_local void @_ZN24btCollisionObjectWrapperC2EPKS_PK16btCollisionShapePK17btCollisionObjectRK11btTransformii(ptr noundef nonnull align 8 dereferenceable(48) %this, ptr noundef %parent, ptr noundef %shape, ptr noundef %collisionObject, ptr noundef nonnull align 4 dereferenceable(64) %worldTransform, i32 noundef %partId, i32 noundef %index) unnamed_addr #1 comdat align 2 {
entry:
  %this.addr = alloca ptr, align 8
  %parent.addr = alloca ptr, align 8
  %shape.addr = alloca ptr, align 8
  %collisionObject.addr = alloca ptr, align 8
  %worldTransform.addr = alloca ptr, align 8
  %partId.addr = alloca i32, align 4
  %index.addr = alloca i32, align 4
  store ptr %this, ptr %this.addr, align 8
  store ptr %parent, ptr %parent.addr, align 8
  store ptr %shape, ptr %shape.addr, align 8
  store ptr %collisionObject, ptr %collisionObject.addr, align 8
  store ptr %worldTransform, ptr %worldTransform.addr, align 8
  store i32 %partId, ptr %partId.addr, align 4
  store i32 %index, ptr %index.addr, align 4
  %this1 = load ptr, ptr %this.addr, align 8
  %m_parent = getelementptr inbounds %struct.btCollisionObjectWrapper, ptr %this1, i32 0, i32 0
  %0 = load ptr, ptr %parent.addr, align 8
  store ptr %0, ptr %m_parent, align 8
  %m_shape = getelementptr inbounds %struct.btCollisionObjectWrapper, ptr %this1, i32 0, i32 1
  %1 = load ptr, ptr %shape.addr, align 8
  store ptr %1, ptr %m_shape, align 8
  %m_collisionObject = getelementptr inbounds %struct.btCollisionObjectWrapper, ptr %this1, i32 0, i32 2
  %2 = load ptr, ptr %collisionObject.addr, align 8
  store ptr %2, ptr %m_collisionObject, align 8
  %m_worldTransform = getelementptr inbounds %struct.btCollisionObjectWrapper, ptr %this1, i32 0, i32 3
  %3 = load ptr, ptr %worldTransform.addr, align 8
  store ptr %3, ptr %m_worldTransform, align 8
  %m_preTransform = getelementptr inbounds %struct.btCollisionObjectWrapper, ptr %this1, i32 0, i32 4
  store ptr null, ptr %m_preTransform, align 8
  %m_partId = getelementptr inbounds %struct.btCollisionObjectWrapper, ptr %this1, i32 0, i32 5
  %4 = load i32, ptr %partId.addr, align 4
  store i32 %4, ptr %m_partId, align 8
  %m_index = getelementptr inbounds %struct.btCollisionObjectWrapper, ptr %this1, i32 0, i32 6
  %5 = load i32, ptr %index.addr, align 4
  store i32 %5, ptr %m_index, align 4
  ret void
}

; Function Attrs: mustprogress uwtable
define dso_local void @_ZN16btCollisionWorld17objectQuerySingleEPK13btConvexShapeRK11btTransformS5_P17btCollisionObjectPK16btCollisionShapeS5_RNS_20ConvexResultCallbackEf(ptr noundef %castShape, ptr noundef nonnull align 4 dereferenceable(64) %convexFromTrans, ptr noundef nonnull align 4 dereferenceable(64) %convexToTrans, ptr noundef %collisionObject, ptr noundef %collisionShape, ptr noundef nonnull align 4 dereferenceable(64) %colObjWorldTransform, ptr noundef nonnull align 8 dereferenceable(20) %resultCallback, float noundef %allowedPenetration) #2 align 2 {
entry:
  %castShape.addr = alloca ptr, align 8
  %convexFromTrans.addr = alloca ptr, align 8
  %convexToTrans.addr = alloca ptr, align 8
  %collisionObject.addr = alloca ptr, align 8
  %collisionShape.addr = alloca ptr, align 8
  %colObjWorldTransform.addr = alloca ptr, align 8
  %resultCallback.addr = alloca ptr, align 8
  %allowedPenetration.addr = alloca float, align 4
  %tmpOb = alloca %struct.btCollisionObjectWrapper, align 8
  store ptr %castShape, ptr %castShape.addr, align 8
  store ptr %convexFromTrans, ptr %convexFromTrans.addr, align 8
  store ptr %convexToTrans, ptr %convexToTrans.addr, align 8
  store ptr %collisionObject, ptr %collisionObject.addr, align 8
  store ptr %collisionShape, ptr %collisionShape.addr, align 8
  store ptr %colObjWorldTransform, ptr %colObjWorldTransform.addr, align 8
  store ptr %resultCallback, ptr %resultCallback.addr, align 8
  store float %allowedPenetration, ptr %allowedPenetration.addr, align 4
  %0 = load ptr, ptr %collisionShape.addr, align 8
  %1 = load ptr, ptr %collisionObject.addr, align 8
  %2 = load ptr, ptr %colObjWorldTransform.addr, align 8
  call void @_ZN24btCollisionObjectWrapperC2EPKS_PK16btCollisionShapePK17btCollisionObjectRK11btTransformii(ptr noundef nonnull align 8 dereferenceable(48) %tmpOb, ptr noundef null, ptr noundef %0, ptr noundef %1, ptr noundef nonnull align 4 dereferenceable(64) %2, i32 noundef -1, i32 noundef -1)
  %3 = load ptr, ptr %castShape.addr, align 8
  %4 = load ptr, ptr %convexFromTrans.addr, align 8
  %5 = load ptr, ptr %convexToTrans.addr, align 8
  %6 = load ptr, ptr %resultCallback.addr, align 8
  %7 = load float, ptr %allowedPenetration.addr, align 4
  call void @_ZN16btCollisionWorld25objectQuerySingleInternalEPK13btConvexShapeRK11btTransformS5_PK24btCollisionObjectWrapperRNS_20ConvexResultCallbackEf(ptr noundef %3, ptr noundef nonnull align 4 dereferenceable(64) %4, ptr noundef nonnull align 4 dereferenceable(64) %5, ptr noundef %tmpOb, ptr noundef nonnull align 8 dereferenceable(20) %6, float noundef %7)
  ret void
}